target datalayout = "e-m:e-p270:32:32-p271:32:32-p272:64:64-i64:64-i128:128-f80:128-n8:16:32:64-S128"
target triple = "x86_64-pc-linux-gnu"

%struct._psqlSettings = type { ptr, i32, ptr, i8, ptr, ptr, %struct.printQueryOpt, ptr, ptr, ptr, i8, i8, i32, i32, ptr, ptr, i8, [4 x ptr], i8, i32, ptr, i8, i32, ptr, ptr, i64, i64, i8, ptr, ptr, ptr, i8, i8, i8, i8, i8, i8, i8, i32, i32, i32, i32, i32, i32, i32, i32, ptr, ptr, ptr, i32, i8, i32 }
%struct.printQueryOpt = type { %struct.printTableOpt, ptr, ptr, ptr, i8, ptr, i32 }
%struct.printTableOpt = type { i32, i16, i32, i32, i16, i16, i32, i8, i8, i8, i8, i64, ptr, %struct.separator, %struct.separator, [2 x i8], i8, ptr, i32, i32, i32, i32, i32, i32 }
%struct.separator = type { ptr, i8 }
%struct.PQExpBufferData = type { ptr, i64, i64 }

@pset = external global %struct._psqlSettings, align 8
@.str.1 = private unnamed_addr constant [7 x i8] c"Schema\00", align 1
@.str.2 = private unnamed_addr constant [5 x i8] c"Name\00", align 1
@.str.111 = private unnamed_addr constant [15 x i8] c"ORDER BY 1, 2;\00", align 1
@.str.382 = private unnamed_addr constant [62 x i8] c"The server (version %s) does not support extended statistics.\00", align 1
@.str.383 = private unnamed_addr constant [98 x i8] c"SELECT \0Aes.stxnamespace::pg_catalog.regnamespace::pg_catalog.text AS \22%s\22, \0Aes.stxname AS \22%s\22, \0A\00", align 1
@.str.384 = private unnamed_addr constant [134 x i8] c"pg_catalog.format('%%s FROM %%s', \0A  pg_catalog.pg_get_statisticsobjdef_columns(es.oid), \0A  es.stxrelid::pg_catalog.regclass) AS \22%s\22\00", align 1
@.str.385 = private unnamed_addr constant [11 x i8] c"Definition\00", align 1
@.str.387 = private unnamed_addr constant [124 x i8] c",\0ACASE WHEN 'd' = any(es.stxkind) THEN 'defined' \0AEND AS \22%s\22, \0ACASE WHEN 'f' = any(es.stxkind) THEN 'defined' \0AEND AS \22%s\22\00", align 1
@.str.388 = private unnamed_addr constant [10 x i8] c"Ndistinct\00", align 1
@.str.389 = private unnamed_addr constant [13 x i8] c"Dependencies\00", align 1
@.str.390 = private unnamed_addr constant [63 x i8] c",\0ACASE WHEN 'm' = any(es.stxkind) THEN 'defined' \0AEND AS \22%s\22 \00", align 1
@.str.391 = private unnamed_addr constant [4 x i8] c"MCV\00", align 1
@.str.392 = private unnamed_addr constant [40 x i8] c" \0AFROM pg_catalog.pg_statistic_ext es \0A\00", align 1
@.str.393 = private unnamed_addr constant [58 x i8] c"es.stxnamespace::pg_catalog.regnamespace::pg_catalog.text\00", align 1
@.str.394 = private unnamed_addr constant [11 x i8] c"es.stxname\00", align 1
@.str.395 = private unnamed_addr constant [48 x i8] c"pg_catalog.pg_statistics_obj_is_visible(es.oid)\00", align 1
@.str.396 = private unnamed_addr constant [28 x i8] c"List of extended statistics\00", align 1

; Function Attrs: nounwind uwtable
define dso_local zeroext i1 @listExtendedStats(ptr noundef %0) #0 {
  %2 = alloca i1, align 1
  %3 = alloca ptr, align 8
  %4 = alloca %struct.PQExpBufferData, align 8
  %5 = alloca ptr, align 8
  %6 = alloca %struct.printQueryOpt, align 8
  %7 = alloca [32 x i8], align 16
  %8 = alloca i32, align 4
  store ptr %0, ptr %3, align 8
  call void @llvm.lifetime.start.p0(i64 24, ptr %4) #8
  call void @llvm.lifetime.start.p0(i64 8, ptr %5) #8
  call void @llvm.lifetime.start.p0(i64 168, ptr %6) #8
  call void @llvm.memcpy.p0.p0.i64(ptr align 8 %6, ptr align 8 getelementptr inbounds nuw (%struct._psqlSettings, ptr @pset, i32 0, i32 6), i64 168, i1 false)
  %9 = load i32, ptr getelementptr inbounds nuw (%struct._psqlSettings, ptr @pset, i32 0, i32 22), align 4
  %10 = icmp slt i32 %9, 100000
  br i1 %10, label %11, label %15

11:                                               ; preds = %1
  call void @llvm.lifetime.start.p0(i64 32, ptr %7) #8
  %12 = load i32, ptr getelementptr inbounds nuw (%struct._psqlSettings, ptr @pset, i32 0, i32 22), align 4
  %13 = getelementptr inbounds [32 x i8], ptr %7, i64 0, i64 0
  %14 = call ptr @formatPGVersionNumber(i32 noundef %12, i1 noundef zeroext false, ptr noundef %13, i64 noundef 32)
  call void (i32, i32, ptr, ...) @pg_log_generic(i32 noundef 4, i32 noundef 0, ptr noundef @.str.382, ptr noundef %14)
  store i1 true, ptr %2, align 1
  store i32 1, ptr %8, align 4
  call void @llvm.lifetime.end.p0(i64 32, ptr %7) #8
  br label %42

15:                                               ; preds = %1
  call void @initPQExpBuffer(ptr noundef %4)
  call void (ptr, ptr, ...) @printfPQExpBuffer(ptr noundef %4, ptr noundef @.str.383, ptr noundef @.str.1, ptr noundef @.str.2)
  %16 = load i32, ptr getelementptr inbounds nuw (%struct._psqlSettings, ptr @pset, i32 0, i32 22), align 4
  %17 = icmp sge i32 %16, 140000
  br i1 %17, label %18, label %19

18:                                               ; preds = %15
  call void (ptr, ptr, ...) @appendPQExpBuffer(ptr noundef %4, ptr noundef @.str.384, ptr noundef @.str.385)
  br label %20

19:                                               ; preds = %15
  call void (ptr, ptr, ...) @appendPQExpBuffer(ptr noundef %4, ptr noundef @.str.386, ptr noundef @.str.385)
  br label %20

20:                                               ; preds = %19, %18
  call void (ptr, ptr, ...) @appendPQExpBuffer(ptr noundef %4, ptr noundef @.str.387, ptr noundef @.str.388, ptr noundef @.str.389)
  %21 = load i32, ptr getelementptr inbounds nuw (%struct._psqlSettings, ptr @pset, i32 0, i32 22), align 4
  %22 = icmp sge i32 %21, 120000
  br i1 %22, label %23, label %24

23:                                               ; preds = %20
  call void (ptr, ptr, ...) @appendPQExpBuffer(ptr noundef %4, ptr noundef @.str.390, ptr noundef @.str.391)
  br label %24

24:                                               ; preds = %23, %20
  call void @appendPQExpBufferStr(ptr noundef %4, ptr noundef @.str.392)
  %25 = load ptr, ptr %3, align 8
  %26 = call zeroext i1 @validateSQLNamePattern(ptr noundef %4, ptr noundef %25, i1 noundef zeroext false, i1 noundef zeroext false, ptr noundef @.str.393, ptr noundef @.str.394, ptr noundef null, ptr noundef @.str.395, ptr noundef null, i32 noundef 3)
  br i1 %26, label %28, label %27

27:                                               ; preds = %24
  call void @termPQExpBuffer(ptr noundef %4)
  store i1 false, ptr %2, align 1
  store i32 1, ptr %8, align 4
  br label %42

28:                                               ; preds = %24
  call void @appendPQExpBufferStr(ptr noundef %4, ptr noundef @.str.111)
  %29 = getelementptr inbounds nuw %struct.PQExpBufferData, ptr %4, i32 0, i32 0
  %30 = load ptr, ptr %29, align 8
  %31 = call ptr @PSQLexec(ptr noundef %30)
  store ptr %31, ptr %5, align 8
  call void @termPQExpBuffer(ptr noundef %4)
  %32 = load ptr, ptr %5, align 8
  %33 = icmp ne ptr %32, null
  br i1 %33, label %35, label %34

34:                                               ; preds = %28
  store i1 false, ptr %2, align 1
  store i32 1, ptr %8, align 4
  br label %42

35:                                               ; preds = %28
  %36 = getelementptr inbounds nuw %struct.printQueryOpt, ptr %6, i32 0, i32 2
  store ptr @.str.396, ptr %36, align 8
  %37 = getelementptr inbounds nuw %struct.printQueryOpt, ptr %6, i32 0, i32 4
  store i8 1, ptr %37, align 8
  %38 = load ptr, ptr %5, align 8
  %39 = load ptr, ptr getelementptr inbounds nuw (%struct._psqlSettings, ptr @pset, i32 0, i32 2), align 8
  %40 = load ptr, ptr getelementptr inbounds nuw (%struct._psqlSettings, ptr @pset, i32 0, i32 28), align 8
  call void @printQuery(ptr noundef %38, ptr noundef %6, ptr noundef %39, i1 noundef zeroext false, ptr noundef %40)
  %41 = load ptr, ptr %5, align 8
  call void @PQclear(ptr noundef %41)
  store i1 true, ptr %2, align 1
  store i32 1, ptr %8, align 4
  br label %42

42:                                               ; preds = %35, %34, %27, %11
  call void @llvm.lifetime.end.p0(i64 168, ptr %6) #8
  call void @llvm.lifetime.end.p0(i64 8, ptr %5) #8
  call void @llvm.lifetime.end.p0(i64 24, ptr %4) #8
  %43 = load i1, ptr %2, align 1
  ret i1 %43
}