; Function Attrs: nounwind uwtable
define dso_local noundef zeroext i1 @listExtendedStats(ptr noundef %0) local_unnamed_addr #0 {
  %2 = alloca %struct.PQExpBufferData, align 8
  %3 = alloca %struct.printQueryOpt, align 8
  %4 = alloca [32 x i8], align 16
  call void @llvm.lifetime.start.p0(i64 24, ptr nonnull %2) #8
  call void @llvm.lifetime.start.p0(i64 168, ptr nonnull %3) #8
  call void @llvm.memcpy.p0.p0.i64(ptr noundef nonnull align 8 dereferenceable(168) %3, ptr noundef nonnull align 8 dereferenceable(168) getelementptr inbounds nuw (i8, ptr @pset, i64 48), i64 168, i1 false)
  %5 = load i32, ptr getelementptr inbounds nuw (i8, ptr @pset, i64 332), align 4
  %6 = icmp slt i32 %5, 100000
  br i1 %6, label %7, label %9

7:                                                ; preds = %1
  call void @llvm.lifetime.start.p0(i64 32, ptr nonnull %4) #8
  %8 = call ptr @formatPGVersionNumber(i32 noundef %5, i1 noundef zeroext false, ptr noundef nonnull %4, i64 noundef 32) #8
  call void (i32, i32, ptr, ...) @pg_log_generic(i32 noundef 4, i32 noundef 0, ptr noundef nonnull @.str.382, ptr noundef %8) #8
  call void @llvm.lifetime.end.p0(i64 32, ptr nonnull %4) #8
  br label %26

9:                                                ; preds = %1
  call void @initPQExpBuffer(ptr noundef nonnull %2) #8
  call void (ptr, ptr, ...) @printfPQExpBuffer(ptr noundef nonnull %2, ptr noundef nonnull @.str.383, ptr noundef nonnull @.str.1, ptr noundef nonnull @.str.2) #8
  %10 = load i32, ptr getelementptr inbounds nuw (i8, ptr @pset, i64 332), align 4
  %11 = icmp sgt i32 %10, 139999
  %.str.384..str.386 = select i1 %11, ptr @.str.384, ptr @.str.386
  call void (ptr, ptr, ...) @appendPQExpBuffer(ptr noundef nonnull %2, ptr noundef nonnull %.str.384..str.386, ptr noundef nonnull @.str.385) #8
  call void (ptr, ptr, ...) @appendPQExpBuffer(ptr noundef nonnull %2, ptr noundef nonnull @.str.387, ptr noundef nonnull @.str.388, ptr noundef nonnull @.str.389) #8
  %12 = load i32, ptr getelementptr inbounds nuw (i8, ptr @pset, i64 332), align 4
  %13 = icmp sgt i32 %12, 119999
  br i1 %13, label %14, label %15

14:                                               ; preds = %9
  call void (ptr, ptr, ...) @appendPQExpBuffer(ptr noundef nonnull %2, ptr noundef nonnull @.str.390, ptr noundef nonnull @.str.391) #8
  br label %15

15:                                               ; preds = %14, %9
  call void @appendPQExpBufferStr(ptr noundef nonnull %2, ptr noundef nonnull @.str.392) #8
  %16 = call fastcc zeroext i1 @validateSQLNamePattern(ptr noundef %2, ptr noundef %0, i1 noundef zeroext false, i1 noundef zeroext false, ptr noundef nonnull @.str.393, ptr noundef nonnull @.str.394, ptr noundef null, ptr noundef nonnull @.str.395, ptr noundef null, i32 noundef 3)
  br i1 %16, label %18, label %17

17:                                               ; preds = %15
  call void @termPQExpBuffer(ptr noundef nonnull %2) #8
  br label %26

18:                                               ; preds = %15
  call void @appendPQExpBufferStr(ptr noundef nonnull %2, ptr noundef nonnull @.str.111) #8
  %19 = load ptr, ptr %2, align 8
  %20 = call ptr @PSQLexec(ptr noundef %19) #8
  call void @termPQExpBuffer(ptr noundef nonnull %2) #8
  %.not = icmp eq ptr %20, null
  br i1 %.not, label %26, label %21

21:                                               ; preds = %18
  %22 = getelementptr inbounds nuw i8, ptr %3, i64 128
  store ptr @.str.396, ptr %22, align 8
  %23 = getelementptr inbounds nuw i8, ptr %3, i64 144
  store i8 1, ptr %23, align 8
  %24 = load ptr, ptr getelementptr inbounds nuw (i8, ptr @pset, i64 16), align 8
  %25 = load ptr, ptr getelementptr inbounds nuw (i8, ptr @pset, i64 376), align 8
  call void @printQuery(ptr noundef nonnull %20, ptr noundef nonnull %3, ptr noundef %24, i1 noundef zeroext false, ptr noundef %25) #8
  call void @PQclear(ptr noundef nonnull %20) #8
  br label %26

26:                                               ; preds = %18, %21, %17, %7
  %.0 = phi i1 [ true, %7 ], [ true, %21 ], [ false, %17 ], [ false, %18 ]
  call void @llvm.lifetime.end.p0(i64 168, ptr nonnull %3) #8
  call void @llvm.lifetime.end.p0(i64 24, ptr nonnull %2) #8
  ret i1 %.0
}